(dp1
S'PpngG'
p2
I6
sS'PngnG'
p3
I1
sS'PnpNG'
p4
I3
sS'PnggG'
p5
I11
sS'PnpnG'
p6
I2
sS'PngG'
p7
I10
sS'PpnG'
p8
I5
sS'PppNG'
p9
I0
sS'PngNG'
p10
I7
sS'PpNG'
p11
I8
sS'PppnG'
p12
I4
sS'PpNgG'
p13
I9
s.