(dp1
S'PpngG'
p2
I6
sS'PngnG'
p3
I1
sS'PnpnG'
p4
I2
sS'PnggG'
p5
I11
sS'PnpNG'
p6
I3
sS'PngG'
p7
I10
sS'PppNG'
p8
I0
sS'PpnG'
p9
I5
sS'PppnG'
p10
I4
sS'PngNG'
p11
I7
sS'PpNG'
p12
I8
sS'PpNgG'
p13
I9
s.